target datalayout = "e-m:e-p270:32:32-p271:32:32-p272:64:64-i64:64-i128:128-f80:128-n8:16:32:64-S128"
target triple = "x86_64-pc-linux-gnu"

%struct.MvcCubeStruct = type { ptr, i32, i32, [1 x i32] }
%struct.MvcCoverStruct = type { i32, i32, i32, %struct.MvcListStruct, ptr, i32, ptr, ptr, ptr }
%struct.MvcListStruct = type { ptr, ptr, i32 }

; Function Attrs: nounwind uwtable
define ptr @Mvc_CoverCommonCubeCover(ptr noundef %0) #0 {
  %2 = alloca ptr, align 8
  %3 = alloca ptr, align 8
  %4 = alloca ptr, align 8
  %5 = alloca ptr, align 8
  store ptr %0, ptr %2, align 8, !tbaa !3
  call void @llvm.lifetime.start.p0(i64 8, ptr %3) #3
  call void @llvm.lifetime.start.p0(i64 8, ptr %4) #3
  %6 = load ptr, ptr %2, align 8, !tbaa !3
  %7 = call ptr @Mvc_CoverClone(ptr noundef %6)
  store ptr %7, ptr %3, align 8, !tbaa !3
  %8 = load ptr, ptr %3, align 8, !tbaa !3
  %9 = call ptr @Mvc_CubeAlloc(ptr noundef %8)
  store ptr %9, ptr %4, align 8, !tbaa !8
  %10 = load ptr, ptr %2, align 8, !tbaa !3
  %11 = load ptr, ptr %4, align 8, !tbaa !8
  call void @Mvc_CoverCommonCube(ptr noundef %10, ptr noundef %11)
  call void @llvm.lifetime.start.p0(i64 8, ptr %5) #3
  %12 = load ptr, ptr %3, align 8, !tbaa !3
  %13 = getelementptr inbounds nuw %struct.MvcCoverStruct, ptr %12, i32 0, i32 3
  store ptr %13, ptr %5, align 8, !tbaa !36
  %14 = load ptr, ptr %5, align 8, !tbaa !36
  %15 = getelementptr inbounds nuw %struct.MvcListStruct, ptr %14, i32 0, i32 0
  %16 = load ptr, ptr %15, align 8, !tbaa !38
  %17 = icmp eq ptr %16, null
  br i1 %17, label %18, label %22

18:                                               ; preds = %1
  %19 = load ptr, ptr %4, align 8, !tbaa !8
  %20 = load ptr, ptr %5, align 8, !tbaa !36
  %21 = getelementptr inbounds nuw %struct.MvcListStruct, ptr %20, i32 0, i32 0
  store ptr %19, ptr %21, align 8, !tbaa !38
  br label %28

22:                                               ; preds = %1
  %23 = load ptr, ptr %4, align 8, !tbaa !8
  %24 = load ptr, ptr %5, align 8, !tbaa !36
  %25 = getelementptr inbounds nuw %struct.MvcListStruct, ptr %24, i32 0, i32 1
  %26 = load ptr, ptr %25, align 8, !tbaa !39
  %27 = getelementptr inbounds nuw %struct.MvcCubeStruct, ptr %26, i32 0, i32 0
  store ptr %23, ptr %27, align 8, !tbaa !21
  br label %28

28:                                               ; preds = %22, %18
  %29 = load ptr, ptr %4, align 8, !tbaa !8
  %30 = load ptr, ptr %5, align 8, !tbaa !36
  %31 = getelementptr inbounds nuw %struct.MvcListStruct, ptr %30, i32 0, i32 1
  store ptr %29, ptr %31, align 8, !tbaa !39
  %32 = load ptr, ptr %4, align 8, !tbaa !8
  %33 = getelementptr inbounds nuw %struct.MvcCubeStruct, ptr %32, i32 0, i32 0
  store ptr null, ptr %33, align 8, !tbaa !21
  %34 = load ptr, ptr %5, align 8, !tbaa !36
  %35 = getelementptr inbounds nuw %struct.MvcListStruct, ptr %34, i32 0, i32 2
  %36 = load i32, ptr %35, align 8, !tbaa !40
  %37 = add nsw i32 %36, 1
  store i32 %37, ptr %35, align 8, !tbaa !40
  call void @llvm.lifetime.end.p0(i64 8, ptr %5) #3
  %38 = load ptr, ptr %3, align 8, !tbaa !3
  call void @llvm.lifetime.end.p0(i64 8, ptr %4) #3
  call void @llvm.lifetime.end.p0(i64 8, ptr %3) #3
  ret ptr %38
}