; Function Attrs: nounwind uwtable
define noundef ptr @Mvc_CoverCommonCubeCover(ptr noundef %0) local_unnamed_addr #1 {
  %2 = tail call ptr @Mvc_CoverClone(ptr noundef %0) #6
  %3 = tail call ptr @Mvc_CubeAlloc(ptr noundef %2) #6
  tail call void @Mvc_CoverCommonCube(ptr noundef %0, ptr noundef %3)
  %4 = getelementptr inbounds nuw i8, ptr %2, i64 16
  %5 = load ptr, ptr %4, align 8, !tbaa !28
  %6 = icmp eq ptr %5, null
  br i1 %6, label %7, label %8

7:                                                ; preds = %1
  store ptr %3, ptr %4, align 8, !tbaa !28
  br label %11

8:                                                ; preds = %1
  %9 = getelementptr inbounds nuw i8, ptr %2, i64 24
  %10 = load ptr, ptr %9, align 8, !tbaa !29
  store ptr %3, ptr %10, align 8, !tbaa !30
  br label %11

11:                                               ; preds = %8, %7
  %12 = getelementptr inbounds nuw i8, ptr %2, i64 24
  store ptr %3, ptr %12, align 8, !tbaa !29
  store ptr null, ptr %3, align 8, !tbaa !30
  %13 = getelementptr inbounds nuw i8, ptr %2, i64 32
  %14 = load i32, ptr %13, align 8, !tbaa !32
  %15 = add nsw i32 %14, 1
  store i32 %15, ptr %13, align 8, !tbaa !32
  ret ptr %2
}